target datalayout = "e-m:e-p270:32:32-p271:32:32-p272:64:64-i64:64-i128:128-f80:128-n8:16:32:64-S128"
target triple = "x86_64-pc-linux-gnu"

%"class.cv::(anonymous namespace)::ufixedpoint32" = type { i32 }
%"class.cv::(anonymous namespace)::ufixedpoint64" = type { i64 }

; Function Attrs: inlinehint mustprogress nounwind uwtable
define linkonce_odr noundef nonnull align 8 dereferenceable(8) ptr @_ZSt3minImERKT_S2_S2_(ptr noundef nonnull align 8 dereferenceable(8) %0, ptr noundef nonnull align 8 dereferenceable(8) %1) #9 comdat {
  %3 = alloca ptr, align 8
  %4 = alloca ptr, align 8
  %5 = alloca ptr, align 8
  store ptr %0, ptr %4, align 8, !tbaa !136
  store ptr %1, ptr %5, align 8, !tbaa !136
  %6 = load ptr, ptr %5, align 8, !tbaa !136
  %7 = load i64, ptr %6, align 8, !tbaa !34
  %8 = load ptr, ptr %4, align 8, !tbaa !136
  %9 = load i64, ptr %8, align 8, !tbaa !34
  %10 = icmp ult i64 %7, %9
  br i1 %10, label %11, label %13

11:                                               ; preds = %2
  %12 = load ptr, ptr %5, align 8, !tbaa !136
  store ptr %12, ptr %3, align 8
  br label %15

13:                                               ; preds = %2
  %14 = load ptr, ptr %4, align 8, !tbaa !136
  store ptr %14, ptr %3, align 8
  br label %15

15:                                               ; preds = %13, %11
  %16 = load ptr, ptr %3, align 8
  ret ptr %16
}

; Function Attrs: inlinehint mustprogress nounwind uwtable
define internal noundef zeroext i16 @_ZN2cvL13saturate_castItEET_m(i64 noundef %0) #9 {
  %2 = alloca i64, align 8
  %3 = alloca i64, align 8
  store i64 %0, ptr %2, align 8, !tbaa !34
  call void @llvm.lifetime.start.p0(i64 8, ptr %3) #3
  store i64 65535, ptr %3, align 8, !tbaa !34
  %4 = call noundef nonnull align 8 dereferenceable(8) ptr @_ZSt3minImERKT_S2_S2_(ptr noundef nonnull align 8 dereferenceable(8) %2, ptr noundef nonnull align 8 dereferenceable(8) %3)
  %5 = load i64, ptr %4, align 8, !tbaa !34
  %6 = trunc i64 %5 to i16
  call void @llvm.lifetime.end.p0(i64 8, ptr %3) #3
  ret i16 %6
}

; Function Attrs: alwaysinline mustprogress nounwind uwtable
define internal noundef i64 @_ZN2cv12_GLOBAL__N_113ufixedpoint6410fixedroundERKm(ptr noundef nonnull align 8 dereferenceable(8) %0) #17 align 2 {
  %2 = alloca ptr, align 8
  store ptr %0, ptr %2, align 8, !tbaa !136
  %3 = load ptr, ptr %2, align 8, !tbaa !136
  %4 = load i64, ptr %3, align 8, !tbaa !34
  %5 = add i64 %4, 2147483648
  ret i64 %5
}

; Function Attrs: alwaysinline mustprogress uwtable
define internal noundef zeroext i16 @_ZNK2cv12_GLOBAL__N_113ufixedpoint6413saturate_castItEET_v(ptr noundef nonnull align 8 dereferenceable(8) %0) #19 align 2 {
  %2 = alloca ptr, align 8
  store ptr %0, ptr %2, align 8, !tbaa !484
  %3 = load ptr, ptr %2, align 8
  %4 = getelementptr inbounds nuw %"class.cv::(anonymous namespace)::ufixedpoint64", ptr %3, i32 0, i32 0
  %5 = call noundef i64 @_ZN2cv12_GLOBAL__N_113ufixedpoint6410fixedroundERKm(ptr noundef nonnull align 8 dereferenceable(8) %4)
  %6 = lshr i64 %5, 32
  %7 = call noundef zeroext i16 @_ZN2cvL13saturate_castItEET_m(i64 noundef %6)
  ret i16 %7
}

; Function Attrs: mustprogress nounwind uwtable
define internal void @_ZN2cv12_GLOBAL__N_113ufixedpoint64C2Em(ptr noundef nonnull align 8 dereferenceable(8) %0, i64 noundef %1) unnamed_addr #7 align 2 {
  %3 = alloca ptr, align 8
  %4 = alloca i64, align 8
  store ptr %0, ptr %3, align 8, !tbaa !484
  store i64 %1, ptr %4, align 8, !tbaa !34
  %5 = load ptr, ptr %3, align 8
  %6 = getelementptr inbounds nuw %"class.cv::(anonymous namespace)::ufixedpoint64", ptr %5, i32 0, i32 0
  %7 = load i64, ptr %4, align 8, !tbaa !34
  store i64 %7, ptr %6, align 8, !tbaa !486
  ret void
}

; Function Attrs: alwaysinline mustprogress uwtable
define internal noundef zeroext i16 @_ZNK2cv12_GLOBAL__N_113ufixedpoint64cvtEv(ptr noundef nonnull align 8 dereferenceable(8) %0) #19 align 2 {
  %2 = alloca ptr, align 8
  store ptr %0, ptr %2, align 8, !tbaa !484
  %3 = load ptr, ptr %2, align 8
  %4 = call noundef zeroext i16 @_ZNK2cv12_GLOBAL__N_113ufixedpoint6413saturate_castItEET_v(ptr noundef nonnull align 8 dereferenceable(8) %3)
  ret i16 %4
}

; Function Attrs: alwaysinline mustprogress uwtable
define internal void @_ZNK2cv12_GLOBAL__N_113ufixedpoint32mlERKS1_(ptr dead_on_unwind noalias writable sret(%"class.cv::(anonymous namespace)::ufixedpoint64") align 8 %0, ptr noundef nonnull align 4 dereferenceable(4) %1, ptr noundef nonnull align 4 dereferenceable(4) %2) #19 align 2 {
  %4 = alloca ptr, align 8
  %5 = alloca ptr, align 8
  %6 = alloca ptr, align 8
  store ptr %0, ptr %4, align 8
  store ptr %1, ptr %5, align 8, !tbaa !343
  store ptr %2, ptr %6, align 8, !tbaa !343
  %7 = load ptr, ptr %5, align 8
  %8 = getelementptr inbounds nuw %"class.cv::(anonymous namespace)::ufixedpoint32", ptr %7, i32 0, i32 0
  %9 = load i32, ptr %8, align 4, !tbaa !344
  %10 = zext i32 %9 to i64
  %11 = load ptr, ptr %6, align 8, !tbaa !343
  %12 = getelementptr inbounds nuw %"class.cv::(anonymous namespace)::ufixedpoint32", ptr %11, i32 0, i32 0
  %13 = load i32, ptr %12, align 4, !tbaa !344
  %14 = zext i32 %13 to i64
  %15 = mul i64 %10, %14
  call void @_ZN2cv12_GLOBAL__N_113ufixedpoint64C2Em(ptr noundef nonnull align 8 dereferenceable(8) %0, i64 noundef %15)
  ret void
}

; Function Attrs: mustprogress uwtable
define internal void @_ZN2cv12cpu_baseline12_GLOBAL__N_113vlineSmooth1NItNS_12_GLOBAL__N_113ufixedpoint32EEEvPKPKT0_S7_iPT_i(ptr noundef %0, ptr noundef %1, i32 noundef %2, ptr noundef %3, i32 noundef %4) #4 {
  %6 = alloca ptr, align 8
  %7 = alloca ptr, align 8
  %8 = alloca i32, align 4
  %9 = alloca ptr, align 8
  %10 = alloca i32, align 4
  %11 = alloca ptr, align 8
  %12 = alloca i32, align 4
  %13 = alloca %"class.cv::(anonymous namespace)::ufixedpoint64", align 8
  store ptr %0, ptr %6, align 8, !tbaa !452
  store ptr %1, ptr %7, align 8, !tbaa !343
  store i32 %2, ptr %8, align 4, !tbaa !10
  store ptr %3, ptr %9, align 8, !tbaa !8
  store i32 %4, ptr %10, align 4, !tbaa !10
  call void @llvm.lifetime.start.p0(i64 8, ptr %11) #3
  %14 = load ptr, ptr %6, align 8, !tbaa !452
  %15 = getelementptr inbounds ptr, ptr %14, i64 0
  %16 = load ptr, ptr %15, align 8, !tbaa !343
  store ptr %16, ptr %11, align 8, !tbaa !343
  call void @llvm.lifetime.start.p0(i64 4, ptr %12) #3
  store i32 0, ptr %12, align 4, !tbaa !10
  br label %17

17:                                               ; preds = %33, %5
  %18 = load i32, ptr %12, align 4, !tbaa !10
  %19 = load i32, ptr %10, align 4, !tbaa !10
  %20 = icmp slt i32 %18, %19
  br i1 %20, label %22, label %21

21:                                               ; preds = %17
  call void @llvm.lifetime.end.p0(i64 4, ptr %12) #3
  br label %36

22:                                               ; preds = %17
  call void @llvm.lifetime.start.p0(i64 8, ptr %13) #3
  %23 = load ptr, ptr %7, align 8, !tbaa !343
  %24 = load ptr, ptr %11, align 8, !tbaa !343
  %25 = load i32, ptr %12, align 4, !tbaa !10
  %26 = sext i32 %25 to i64
  %27 = getelementptr inbounds %"class.cv::(anonymous namespace)::ufixedpoint32", ptr %24, i64 %26
  call void @_ZNK2cv12_GLOBAL__N_113ufixedpoint32mlERKS1_(ptr dead_on_unwind writable sret(%"class.cv::(anonymous namespace)::ufixedpoint64") align 8 %13, ptr noundef nonnull align 4 dereferenceable(4) %23, ptr noundef nonnull align 4 dereferenceable(4) %27)
  %28 = call noundef zeroext i16 @_ZNK2cv12_GLOBAL__N_113ufixedpoint64cvtEv(ptr noundef nonnull align 8 dereferenceable(8) %13)
  %29 = load ptr, ptr %9, align 8, !tbaa !8
  %30 = load i32, ptr %12, align 4, !tbaa !10
  %31 = sext i32 %30 to i64
  %32 = getelementptr inbounds i16, ptr %29, i64 %31
  store i16 %28, ptr %32, align 2, !tbaa !236
  call void @llvm.lifetime.end.p0(i64 8, ptr %13) #3
  br label %33

33:                                               ; preds = %22
  %34 = load i32, ptr %12, align 4, !tbaa !10
  %35 = add nsw i32 %34, 1
  store i32 %35, ptr %12, align 4, !tbaa !10
  br label %17, !llvm.loop !455

36:                                               ; preds = %21
  call void @llvm.lifetime.end.p0(i64 8, ptr %11) #3
  ret void
}