; Function Attrs: mustprogress nofree norecurse nosync nounwind memory(read, argmem: readwrite, inaccessiblemem: none) uwtable
define internal void @_ZN2cv12cpu_baseline12_GLOBAL__N_113vlineSmooth1NItNS_12_GLOBAL__N_113ufixedpoint32EEEvPKPKT0_S7_iPT_i(ptr noundef readonly captures(none) %0, ptr noundef readonly captures(none) %1, i32 %2, ptr noundef writeonly captures(none) %3, i32 noundef %4) #17 {
  %6 = load ptr, ptr %0, align 8, !tbaa !1818
  %7 = icmp sgt i32 %4, 0
  br i1 %7, label %.lr.ph, label %._crit_edge

.lr.ph:                                           ; preds = %5
  %8 = load i32, ptr %1, align 4, !tbaa !73, !noalias !1820
  %9 = zext i32 %8 to i64
  %wide.trip.count = zext nneg i32 %4 to i64
  br label %10

._crit_edge:                                      ; preds = %10, %5
  ret void

10:                                               ; preds = %.lr.ph, %10
  %indvars.iv = phi i64 [ 0, %.lr.ph ], [ %indvars.iv.next, %10 ]
  %11 = getelementptr inbounds nuw %"class.cv::(anonymous namespace)::ufixedpoint32", ptr %6, i64 %indvars.iv
  %12 = load i32, ptr %11, align 4, !tbaa !73, !noalias !1820
  %13 = zext i32 %12 to i64
  %14 = mul nuw i64 %13, %9
  %15 = add nuw i64 %14, 2147483648
  %16 = lshr i64 %15, 32
  %.sroa.speculated.i = tail call i64 @llvm.umin.i64(i64 range(i64 0, 4294967296) %16, i64 65535)
  %17 = trunc nuw i64 %.sroa.speculated.i to i16
  %18 = getelementptr inbounds nuw i16, ptr %3, i64 %indvars.iv
  store i16 %17, ptr %18, align 2, !tbaa !400
  %indvars.iv.next = add nuw nsw i64 %indvars.iv, 1
  %exitcond.not = icmp eq i64 %indvars.iv.next, %wide.trip.count
  br i1 %exitcond.not, label %._crit_edge, label %10, !llvm.loop !1823
}